; Function Attrs: mustprogress nounwind uwtable
define void @_ZN3fmt3v116detail11file_bufferD2Ev(ptr noundef nonnull align 8 dereferenceable(40) %0) unnamed_addr #0 align 2 personality ptr @__gxx_personality_v0 {
  %2 = getelementptr inbounds nuw i8, ptr %0, i64 8
  %3 = load i64, ptr %2, align 8, !tbaa !69
  %4 = icmp eq i64 %3, 0
  br i1 %4, label %_ZN3fmt3v116detail11file_buffer5flushEv.exit, label %5

5:                                                ; preds = %1
  %6 = getelementptr inbounds nuw i8, ptr %0, i64 32
  %7 = load ptr, ptr %0, align 8, !tbaa !73
  %8 = invoke noundef i64 @_ZN3fmt3v114file5writeEPKvm(ptr noundef nonnull align 4 dereferenceable(4) %6, ptr noundef %7, i64 noundef %3)
          to label %.noexc unwind label %14

.noexc:                                           ; preds = %5
  store i64 0, ptr %2, align 8, !tbaa !69
  br label %_ZN3fmt3v116detail11file_buffer5flushEv.exit

_ZN3fmt3v116detail11file_buffer5flushEv.exit:     ; preds = %.noexc, %1
  %9 = load ptr, ptr %0, align 8, !tbaa !73
  %10 = icmp eq ptr %9, null
  br i1 %10, label %12, label %11

11:                                               ; preds = %_ZN3fmt3v116detail11file_buffer5flushEv.exit
  tail call void @_ZdaPv(ptr noundef nonnull %9) #21
  br label %12

12:                                               ; preds = %11, %_ZN3fmt3v116detail11file_buffer5flushEv.exit
  %13 = getelementptr inbounds nuw i8, ptr %0, i64 32
  tail call void @_ZN3fmt3v114fileD1Ev(ptr noundef nonnull align 4 dereferenceable(4) %13) #17
  ret void

14:                                               ; preds = %5
  %15 = landingpad { ptr, i32 }
          catch ptr null
  %16 = extractvalue { ptr, i32 } %15, 0
  tail call void @__clang_call_terminate(ptr %16) #18
  unreachable
}